target datalayout = "e-m:e-p270:32:32-p271:32:32-p272:64:64-i64:64-i128:128-f80:128-n8:16:32:64-S128"
target triple = "x86_64-pc-linux-gnu"

%struct._zend_phpdbg_globals = type { [11 x %struct._zend_array], %struct._zend_array, %struct._zend_array, ptr, ptr, %struct.phpdbg_frame_t, i32, ptr, %struct.phpdbg_lexer_data, ptr, %struct.sigaction, i32, i64, %struct.phpdbg_btree, %struct.phpdbg_btree, %struct._zend_array, %struct._zend_array, %struct._zend_array, %struct._zend_array, ptr, ptr, i8, ptr, ptr, ptr, i64, ptr, %struct._zval_struct, i32, i32, i8, i8, ptr, ptr, ptr, %struct._zend_array, ptr, ptr, ptr, [3 x %struct.anon.8], ptr, %struct.anon.9, i64, [2 x ptr], [3 x ptr], ptr, i8, ptr, ptr, [500 x i8], i32, %struct.phpdbg_signal_safe_mem, ptr, i64, ptr, i64 }
%struct.phpdbg_frame_t = type { i32, ptr, ptr }
%struct.phpdbg_lexer_data = type { i32, ptr, ptr, ptr, ptr, i32 }
%struct.sigaction = type { %union.anon.2, %struct.__sigset_t, i32, ptr }
%union.anon.2 = type { ptr }
%struct.__sigset_t = type { [16 x i64] }
%struct.phpdbg_btree = type { i64, i64, i8, ptr }
%struct._zval_struct = type { %union._zend_value, %union.anon.4, %union.anon.7 }
%union._zend_value = type { i64 }
%union.anon.4 = type { i32 }
%union.anon.7 = type { i32 }
%struct._zend_array = type { %struct._zend_refcounted_h, %union.anon.0, i32, %union.anon.1, i32, i32, i32, i32, i64, ptr }
%struct._zend_refcounted_h = type { i32, %union.anon }
%union.anon = type { i32 }
%union.anon.0 = type { i32 }
%union.anon.1 = type { ptr }
%struct.anon.8 = type { i32 }
%struct.anon.9 = type { i8, i32, i32, ptr, i32 }
%struct.phpdbg_signal_safe_mem = type { ptr, i8, ptr, ptr }
%struct.__va_list_tag = type { i32, i32, ptr, ptr }

@phpdbg_globals = external global %struct._zend_phpdbg_globals, align 8

; Function Attrs: nounwind uwtable
define void @phpdbg_free_err_buf() #0 {
  %1 = load i32, ptr getelementptr inbounds (%struct._zend_phpdbg_globals, ptr @phpdbg_globals, i32 0, i32 41, i32 1), align 4
  %2 = icmp eq i32 %1, 0
  br i1 %2, label %3, label %4

3:                                                ; preds = %0
  br label %6

4:                                                ; preds = %0
  %5 = load ptr, ptr getelementptr inbounds (%struct._zend_phpdbg_globals, ptr @phpdbg_globals, i32 0, i32 41, i32 3), align 8
  call void @free(ptr noundef %5) #5
  store i32 0, ptr getelementptr inbounds (%struct._zend_phpdbg_globals, ptr @phpdbg_globals, i32 0, i32 41, i32 1), align 4
  br label %6

6:                                                ; preds = %4, %3
  ret void
}

; Function Attrs: nounwind uwtable
define i32 @phpdbg_output_err_buf(ptr noundef %0, ...) #0 {
  %2 = alloca i32, align 4
  %3 = alloca ptr, align 8
  %4 = alloca i32, align 4
  %5 = alloca [1 x %struct.__va_list_tag], align 16
  %6 = alloca i32, align 4
  store ptr %0, ptr %3, align 8
  %7 = load i8, ptr getelementptr inbounds (%struct._zend_phpdbg_globals, ptr @phpdbg_globals, i32 0, i32 41), align 8
  %8 = trunc i8 %7 to i1
  %9 = zext i1 %8 to i32
  store i32 %9, ptr %6, align 4
  %10 = load i64, ptr getelementptr inbounds (%struct._zend_phpdbg_globals, ptr @phpdbg_globals, i32 0, i32 53), align 8
  %11 = and i64 %10, 4294967296
  %12 = icmp ne i64 %11, 0
  br i1 %12, label %13, label %14

13:                                               ; preds = %1
  store i32 0, ptr %2, align 4
  br label %26

14:                                               ; preds = %1
  store i8 0, ptr getelementptr inbounds (%struct._zend_phpdbg_globals, ptr @phpdbg_globals, i32 0, i32 41), align 8
  %15 = getelementptr inbounds [1 x %struct.__va_list_tag], ptr %5, i64 0, i64 0
  call void @llvm.va_start(ptr %15)
  %16 = load i32, ptr getelementptr inbounds (%struct._zend_phpdbg_globals, ptr @phpdbg_globals, i32 0, i32 41, i32 1), align 4
  %17 = load i32, ptr getelementptr inbounds (%struct._zend_phpdbg_globals, ptr @phpdbg_globals, i32 0, i32 41, i32 2), align 8
  %18 = load ptr, ptr %3, align 8
  %19 = getelementptr inbounds [1 x %struct.__va_list_tag], ptr %5, i64 0, i64 0
  %20 = call i32 @phpdbg_vprint(i32 noundef %16, i32 noundef %17, ptr noundef %18, ptr noundef %19)
  store i32 %20, ptr %4, align 4
  %21 = getelementptr inbounds [1 x %struct.__va_list_tag], ptr %5, i64 0, i64 0
  call void @llvm.va_end(ptr %21)
  %22 = load i32, ptr %6, align 4
  %23 = icmp ne i32 %22, 0
  %24 = zext i1 %23 to i8
  store i8 %24, ptr getelementptr inbounds (%struct._zend_phpdbg_globals, ptr @phpdbg_globals, i32 0, i32 41), align 8
  call void @phpdbg_free_err_buf()
  %25 = load i32, ptr %4, align 4
  store i32 %25, ptr %2, align 4
  br label %26

26:                                               ; preds = %14, %13
  %27 = load i32, ptr %2, align 4
  ret i32 %27
}