; Function Attrs: nounwind uwtable
define i32 @phpdbg_output_err_buf(ptr noundef %0, ...) local_unnamed_addr #0 {
  %2 = alloca [1 x %struct.__va_list_tag], align 16
  %3 = load i64, ptr getelementptr inbounds (%struct._zend_phpdbg_globals, ptr @phpdbg_globals, i64 0, i32 53), align 8
  %4 = and i64 %3, 4294967296
  %.not = icmp eq i64 %4, 0
  br i1 %.not, label %5, label %phpdbg_free_err_buf.exit

5:                                                ; preds = %1
  %6 = load i8, ptr getelementptr inbounds (%struct._zend_phpdbg_globals, ptr @phpdbg_globals, i64 0, i32 41), align 8
  %7 = and i8 %6, 1
  store i8 0, ptr getelementptr inbounds (%struct._zend_phpdbg_globals, ptr @phpdbg_globals, i64 0, i32 41), align 8
  call void @llvm.va_start(ptr nonnull %2)
  %8 = load i32, ptr getelementptr inbounds (%struct._zend_phpdbg_globals, ptr @phpdbg_globals, i64 0, i32 41, i32 1), align 4
  %9 = load i32, ptr getelementptr inbounds (%struct._zend_phpdbg_globals, ptr @phpdbg_globals, i64 0, i32 41, i32 2), align 8
  %10 = call i32 @phpdbg_vprint(i32 noundef %8, i32 noundef %9, ptr noundef %0, ptr noundef nonnull %2)
  call void @llvm.va_end(ptr nonnull %2)
  store i8 %7, ptr getelementptr inbounds (%struct._zend_phpdbg_globals, ptr @phpdbg_globals, i64 0, i32 41), align 8
  %11 = load i32, ptr getelementptr inbounds (%struct._zend_phpdbg_globals, ptr @phpdbg_globals, i64 0, i32 41, i32 1), align 4
  %12 = icmp eq i32 %11, 0
  br i1 %12, label %phpdbg_free_err_buf.exit, label %13

13:                                               ; preds = %5
  %14 = load ptr, ptr getelementptr inbounds (%struct._zend_phpdbg_globals, ptr @phpdbg_globals, i64 0, i32 41, i32 3), align 8
  call void @free(ptr noundef %14) #10
  store i32 0, ptr getelementptr inbounds (%struct._zend_phpdbg_globals, ptr @phpdbg_globals, i64 0, i32 41, i32 1), align 4
  br label %phpdbg_free_err_buf.exit

phpdbg_free_err_buf.exit:                         ; preds = %13, %5, %1
  %.0 = phi i32 [ 0, %1 ], [ %10, %5 ], [ %10, %13 ]
  ret i32 %.0
}